; Function Attrs: nounwind uwtable
define hidden range(i32 -2147483647, 2147483647) i32 @X509at_get_attr_by_OBJ(ptr noundef %0, ptr noundef %1, i32 noundef %2) local_unnamed_addr #0 {
  %4 = icmp eq ptr %0, null
  br i1 %4, label %.loopexit, label %5

5:                                                ; preds = %3
  %6 = tail call i64 @sk_num(ptr noundef nonnull %0) #4
  %7 = tail call i32 @llvm.smax.i32(i32 %2, i32 -1)
  %smax = sext i32 %7 to i64
  %sext = shl i64 %6, 32
  %8 = ashr exact i64 %sext, 32
  br label %9

9:                                                ; preds = %11, %5
  %indvars.iv = phi i64 [ %indvars.iv.next, %11 ], [ %smax, %5 ]
  %indvars.iv.next = add nsw i64 %indvars.iv, 1
  %10 = icmp slt i64 %indvars.iv.next, %8
  br i1 %10, label %11, label %.loopexit

11:                                               ; preds = %9
  %12 = tail call ptr @sk_value(ptr noundef nonnull %0, i64 noundef %indvars.iv.next) #4
  %13 = load ptr, ptr %12, align 8, !tbaa !6
  %14 = tail call i32 @OBJ_cmp(ptr noundef %13, ptr noundef %1) #4
  %15 = icmp eq i32 %14, 0
  br i1 %15, label %.loopexit.loopexit.split.loop.exit, label %9, !llvm.loop !13

.loopexit.loopexit.split.loop.exit:               ; preds = %11
  %16 = trunc nsw i64 %indvars.iv.next to i32
  br label %.loopexit

.loopexit:                                        ; preds = %9, %.loopexit.loopexit.split.loop.exit, %3
  %.0 = phi i32 [ -1, %3 ], [ %16, %.loopexit.loopexit.split.loop.exit ], [ -1, %9 ]
  ret i32 %.0
}